target datalayout = "e-m:e-p270:32:32-p271:32:32-p272:64:64-i64:64-i128:128-f80:128-n8:16:32:64-S128"
target triple = "x86_64-pc-linux-gnu"

%struct.OnigMatchParamStruct = type { i32, i64, i64, ptr, ptr, ptr, i32, ptr, i32 }
%struct.OnigCalloutArgsStruct = type { i32, i32, i32, ptr, ptr, ptr, ptr, ptr, ptr, i64, ptr, ptr, ptr, ptr, ptr }
%struct.MatchArg = type { ptr, i32, i32, ptr, i32, ptr, i32, i64, i64, i64, ptr, i32, ptr, i64 }
%struct.CalloutData = type { i32, [5 x %struct.anon] }
%struct.anon = type { i32, %union.OnigValue }
%union.OnigValue = type { %struct.anon.0 }
%struct.anon.0 = type { ptr, ptr }

; Function Attrs: nounwind uwtable
define dso_local i32 @onig_check_callout_data_and_clear_old_values(ptr noundef %0) #0 {
  %2 = alloca i32, align 4
  %3 = alloca ptr, align 8
  %4 = alloca ptr, align 8
  %5 = alloca i32, align 4
  %6 = alloca ptr, align 8
  %7 = alloca i32, align 4
  store ptr %0, ptr %3, align 8, !tbaa !45
  call void @llvm.lifetime.start.p0(i64 8, ptr %4) #9
  call void @llvm.lifetime.start.p0(i64 4, ptr %5) #9
  call void @llvm.lifetime.start.p0(i64 8, ptr %6) #9
  %8 = load ptr, ptr %3, align 8, !tbaa !45
  %9 = getelementptr inbounds nuw %struct.OnigCalloutArgsStruct, ptr %8, i32 0, i32 10
  %10 = load ptr, ptr %9, align 8, !tbaa !47
  %11 = getelementptr inbounds nuw %struct.MatchArg, ptr %10, i32 0, i32 10
  %12 = load ptr, ptr %11, align 8, !tbaa !52
  store ptr %12, ptr %4, align 8, !tbaa !4
  %13 = load ptr, ptr %3, align 8, !tbaa !45
  %14 = getelementptr inbounds nuw %struct.OnigCalloutArgsStruct, ptr %13, i32 0, i32 2
  %15 = load i32, ptr %14, align 8, !tbaa !54
  store i32 %15, ptr %5, align 4, !tbaa !9
  %16 = load ptr, ptr %4, align 8, !tbaa !4
  %17 = getelementptr inbounds nuw %struct.OnigMatchParamStruct, ptr %16, i32 0, i32 7
  %18 = load ptr, ptr %17, align 8, !tbaa !43
  %19 = load i32, ptr %5, align 4, !tbaa !9
  %20 = sub nsw i32 %19, 1
  %21 = sext i32 %20 to i64
  %22 = getelementptr inbounds %struct.CalloutData, ptr %18, i64 %21
  store ptr %22, ptr %6, align 8, !tbaa !17
  %23 = load ptr, ptr %6, align 8, !tbaa !17
  %24 = getelementptr inbounds nuw %struct.CalloutData, ptr %23, i32 0, i32 0
  %25 = load i32, ptr %24, align 8, !tbaa !55
  %26 = load ptr, ptr %4, align 8, !tbaa !4
  %27 = getelementptr inbounds nuw %struct.OnigMatchParamStruct, ptr %26, i32 0, i32 6
  %28 = load i32, ptr %27, align 8, !tbaa !42
  %29 = icmp ne i32 %25, %28
  br i1 %29, label %30, label %40

30:                                               ; preds = %1
  %31 = load ptr, ptr %6, align 8, !tbaa !17
  call void @llvm.memset.p0.i64(ptr align 8 %31, i8 0, i64 128, i1 false)
  %32 = load ptr, ptr %4, align 8, !tbaa !4
  %33 = getelementptr inbounds nuw %struct.OnigMatchParamStruct, ptr %32, i32 0, i32 6
  %34 = load i32, ptr %33, align 8, !tbaa !42
  %35 = load ptr, ptr %6, align 8, !tbaa !17
  %36 = getelementptr inbounds nuw %struct.CalloutData, ptr %35, i32 0, i32 0
  store i32 %34, ptr %36, align 8, !tbaa !55
  %37 = load ptr, ptr %6, align 8, !tbaa !17
  %38 = getelementptr inbounds nuw %struct.CalloutData, ptr %37, i32 0, i32 0
  %39 = load i32, ptr %38, align 8, !tbaa !55
  store i32 %39, ptr %2, align 4
  store i32 1, ptr %7, align 4
  br label %41

40:                                               ; preds = %1
  store i32 0, ptr %2, align 4
  store i32 1, ptr %7, align 4
  br label %41

41:                                               ; preds = %40, %30
  call void @llvm.lifetime.end.p0(i64 8, ptr %6) #9
  call void @llvm.lifetime.end.p0(i64 4, ptr %5) #9
  call void @llvm.lifetime.end.p0(i64 8, ptr %4) #9
  %42 = load i32, ptr %2, align 4
  ret i32 %42
}

; Function Attrs: nounwind uwtable
define dso_local i32 @onig_builtin_count(ptr noundef %0, ptr noundef %1) #0 {
  %3 = alloca ptr, align 8
  %4 = alloca ptr, align 8
  store ptr %0, ptr %3, align 8, !tbaa !45
  store ptr %1, ptr %4, align 8, !tbaa !17
  %5 = load ptr, ptr %3, align 8, !tbaa !45
  %6 = call i32 @onig_check_callout_data_and_clear_old_values(ptr noundef %5)
  %7 = load ptr, ptr %3, align 8, !tbaa !45
  %8 = load ptr, ptr %4, align 8, !tbaa !17
  %9 = call i32 @onig_builtin_total_count(ptr noundef %7, ptr noundef %8)
  ret i32 %9
}